target datalayout = "e-m:e-p270:32:32-p271:32:32-p272:64:64-i64:64-i128:128-f80:128-n8:16:32:64-S128"
target triple = "x86_64-pc-linux-gnu"

%struct.compressionParameters = type { i32, ptr, i32, ptr, ptr, ptr, ptr, ptr, ptr, ptr, ptr }

; Function Attrs: nounwind uwtable
define internal void @LZ4_compressResetStreamHC(ptr noundef %0) #0 {
  %2 = alloca ptr, align 8
  store ptr %0, ptr %2, align 8, !tbaa !65
  %3 = load ptr, ptr %2, align 8, !tbaa !65
  %4 = getelementptr inbounds nuw %struct.compressionParameters, ptr %3, i32 0, i32 5
  %5 = load ptr, ptr %4, align 8, !tbaa !74
  %6 = load ptr, ptr %2, align 8, !tbaa !65
  %7 = getelementptr inbounds nuw %struct.compressionParameters, ptr %6, i32 0, i32 0
  %8 = load i32, ptr %7, align 8, !tbaa !67
  call void @LZ4_resetStreamHC_fast(ptr noundef %5, i32 noundef %8)
  %9 = load ptr, ptr %2, align 8, !tbaa !65
  %10 = getelementptr inbounds nuw %struct.compressionParameters, ptr %9, i32 0, i32 5
  %11 = load ptr, ptr %10, align 8, !tbaa !74
  %12 = load ptr, ptr %2, align 8, !tbaa !65
  %13 = getelementptr inbounds nuw %struct.compressionParameters, ptr %12, i32 0, i32 6
  %14 = load ptr, ptr %13, align 8, !tbaa !75
  call void @LZ4_attach_HC_dictionary(ptr noundef %11, ptr noundef %14)
  ret void
}

; Function Attrs: nounwind uwtable
define internal i32 @LZ4_compressBlockStreamHC(ptr noundef %0, ptr noundef %1, ptr noundef %2, i32 noundef %3, i32 noundef %4) #0 {
  %6 = alloca ptr, align 8
  %7 = alloca ptr, align 8
  %8 = alloca ptr, align 8
  %9 = alloca i32, align 4
  %10 = alloca i32, align 4
  store ptr %0, ptr %6, align 8, !tbaa !65
  store ptr %1, ptr %7, align 8, !tbaa !15
  store ptr %2, ptr %8, align 8, !tbaa !15
  store i32 %3, ptr %9, align 4, !tbaa !4
  store i32 %4, ptr %10, align 4, !tbaa !4
  %11 = load ptr, ptr %6, align 8, !tbaa !65
  call void @LZ4_compressResetStreamHC(ptr noundef %11)
  %12 = load ptr, ptr %6, align 8, !tbaa !65
  %13 = getelementptr inbounds nuw %struct.compressionParameters, ptr %12, i32 0, i32 5
  %14 = load ptr, ptr %13, align 8, !tbaa !74
  %15 = load ptr, ptr %7, align 8, !tbaa !15
  %16 = load ptr, ptr %8, align 8, !tbaa !15
  %17 = load i32, ptr %9, align 4, !tbaa !4
  %18 = load i32, ptr %10, align 4, !tbaa !4
  %19 = call i32 @LZ4_compress_HC_continue(ptr noundef %14, ptr noundef %15, ptr noundef %16, i32 noundef %17, i32 noundef %18)
  ret i32 %19
}