; Function Attrs: nounwind uwtable
define internal i32 @LZ4_compressBlockStreamHC(ptr noundef readonly captures(none) %0, ptr noundef %1, ptr noundef %2, i32 noundef %3, i32 noundef %4) #3 {
  %6 = getelementptr inbounds nuw i8, ptr %0, i64 40
  %7 = load ptr, ptr %6, align 8, !tbaa !65
  %8 = load i32, ptr %0, align 8, !tbaa !23
  tail call void @LZ4_resetStreamHC_fast(ptr noundef %7, i32 noundef %8) #19
  %9 = load ptr, ptr %6, align 8, !tbaa !65
  %10 = getelementptr inbounds nuw i8, ptr %0, i64 48
  %11 = load ptr, ptr %10, align 8, !tbaa !66
  tail call void @LZ4_attach_HC_dictionary(ptr noundef %9, ptr noundef %11) #19
  %12 = load ptr, ptr %6, align 8, !tbaa !65
  %13 = tail call i32 @LZ4_compress_HC_continue(ptr noundef %12, ptr noundef %1, ptr noundef %2, i32 noundef %3, i32 noundef %4) #19
  ret i32 %13
}